---
triple:          'arm64-apple-darwin'
binary-path:     '/Users/ayushmishra/Desktop/practice_coding/output/sweepinglines2'
relocations:
  - { offsetInCU: 0x3D8A, offset: 0x3D8A, size: 0x8, addend: 0x0, symName: __ZNSt3__124__put_character_sequenceB7v160006IcNS_11char_traitsIcEEEERNS_13basic_ostreamIT_T0_EES7_PKS4_m, symObjAddr: 0xD5C, symBinAddr: 0x10000156C, symSize: 0x1F4 }
  - { offsetInCU: 0x5DB7, offset: 0x5DB7, size: 0x8, addend: 0x0, symName: __ZNSt3__13maxB7v160006IiEERKT_S3_S3_, symObjAddr: 0x240, symBinAddr: 0x100000A50, symSize: 0x2C }
  - { offsetInCU: 0x5DFA, offset: 0x5DFA, size: 0x8, addend: 0x0, symName: __ZNSt3__13minB7v160006IiEERKT_S3_S3_, symObjAddr: 0x26C, symBinAddr: 0x100000A7C, symSize: 0x2C }
  - { offsetInCU: 0x5E3D, offset: 0x5E3D, size: 0x8, addend: 0x0, symName: __ZNSt3__1lsB7v160006INS_11char_traitsIcEEEERNS_13basic_ostreamIcT_EES6_PKc, symObjAddr: 0xB14, symBinAddr: 0x100001324, symSize: 0x48 }
  - { offsetInCU: 0x5E83, offset: 0x5E83, size: 0x8, addend: 0x0, symName: __ZNSt3__14endlB7v160006IcNS_11char_traitsIcEEEERNS_13basic_ostreamIT_T0_EES7_, symObjAddr: 0xC28, symBinAddr: 0x100001438, symSize: 0x58 }
  - { offsetInCU: 0x5EC3, offset: 0x5EC3, size: 0x8, addend: 0x0, symName: __ZNSt3__13maxB7v160006IiNS_6__lessIiiEEEERKT_S5_S5_T0_, symObjAddr: 0xC80, symBinAddr: 0x100001490, symSize: 0x54 }
  - { offsetInCU: 0x5F58, offset: 0x5F58, size: 0x8, addend: 0x0, symName: __ZNSt3__13minB7v160006IiNS_6__lessIiiEEEERKT_S5_S5_T0_, symObjAddr: 0xD08, symBinAddr: 0x100001518, symSize: 0x54 }
  - { offsetInCU: 0x5FB2, offset: 0x5FB2, size: 0x8, addend: 0x0, symName: __ZNSt3__116__pad_and_outputB7v160006IcNS_11char_traitsIcEEEENS_19ostreambuf_iteratorIT_T0_EES6_PKS4_S8_S8_RNS_8ios_baseES4_, symObjAddr: 0xFB4, symBinAddr: 0x1000017C4, symSize: 0x248 }
  - { offsetInCU: 0x6081, offset: 0x6081, size: 0x8, addend: 0x0, symName: __ZNSt3__119__debug_db_insert_cB7v160006INS_12basic_stringIcNS_11char_traitsIcEENS_9allocatorIcEEEEEEvPT_, symObjAddr: 0x1470, symBinAddr: 0x100001C80, symSize: 0x10 }
  - { offsetInCU: 0x60B2, offset: 0x60B2, size: 0x8, addend: 0x0, symName: __ZNSt3__112__to_addressB7v160006IKcEEPT_S3_, symObjAddr: 0x153C, symBinAddr: 0x100001D4C, symSize: 0x14 }
  - { offsetInCU: 0x60E7, offset: 0x60E7, size: 0x8, addend: 0x0, symName: __ZNSt3__130__libcpp_is_constant_evaluatedB7v160006Ev, symObjAddr: 0x1668, symBinAddr: 0x100001E78, symSize: 0xC }
  - { offsetInCU: 0x6137, offset: 0x6137, size: 0x8, addend: 0x0, symName: __ZNSt3__19use_facetB7v160006INS_5ctypeIcEEEERKT_RKNS_6localeE, symObjAddr: 0x1820, symBinAddr: 0x100002030, symSize: 0x2C }
  - { offsetInCU: 0x6606, offset: 0x6606, size: 0x8, addend: 0x0, symName: __ZNSt3__118__constexpr_strlenB7v160006EPKc, symObjAddr: 0x18B8, symBinAddr: 0x1000020C8, symSize: 0x24 }
  - { offsetInCU: 0x6632, offset: 0x6632, size: 0x8, addend: 0x0, symName: __ZNSt3__122__make_exception_guardB7v160006INS_6vectorI11LineSegmentNS_9allocatorIS2_EEE16__destroy_vectorEEENS_28__exception_guard_exceptionsIT_EES8_, symObjAddr: 0x1A00, symBinAddr: 0x100002210, symSize: 0x40 }
  - { offsetInCU: 0x6667, offset: 0x6667, size: 0x8, addend: 0x0, symName: __ZNSt3__119__debug_db_insert_cB7v160006INS_6vectorI11LineSegmentNS_9allocatorIS2_EEEEEEvPT_, symObjAddr: 0x1A74, symBinAddr: 0x100002284, symSize: 0x10 }
  - { offsetInCU: 0x6698, offset: 0x6698, size: 0x8, addend: 0x0, symName: __ZNSt3__119__allocate_at_leastB7v160006INS_9allocatorI11LineSegmentEEEENS_19__allocation_resultINS_16allocator_traitsIT_E7pointerEEERS6_m, symObjAddr: 0x1E18, symBinAddr: 0x100002628, symSize: 0x40 }
  - { offsetInCU: 0x66DB, offset: 0x66DB, size: 0x8, addend: 0x0, symName: __ZNSt3__13minB7v160006ImEERKT_S3_S3_, symObjAddr: 0x1F54, symBinAddr: 0x100002764, symSize: 0x2C }
  - { offsetInCU: 0x691F, offset: 0x691F, size: 0x8, addend: 0x0, symName: __ZNSt3__13minB7v160006ImNS_6__lessImmEEEERKT_S5_S5_T0_, symObjAddr: 0x1FE0, symBinAddr: 0x1000027F0, symSize: 0x54 }
  - { offsetInCU: 0x69B4, offset: 0x69B4, size: 0x8, addend: 0x0, symName: __ZNSt3__120__throw_length_errorB7v160006EPKc, symObjAddr: 0x20BC, symBinAddr: 0x1000028CC, symSize: 0x64 }
  - { offsetInCU: 0x69DC, offset: 0x69DC, size: 0x8, addend: 0x0, symName: __ZNSt3__117__libcpp_allocateB7v160006Emm, symObjAddr: 0x2258, symBinAddr: 0x100002A68, symSize: 0x28 }
  - { offsetInCU: 0x6A19, offset: 0x6A19, size: 0x8, addend: 0x0, symName: __ZNSt3__121__libcpp_operator_newB7v160006IJmEEEPvDpT_, symObjAddr: 0x2280, symBinAddr: 0x100002A90, symSize: 0x24 }
  - { offsetInCU: 0x6A52, offset: 0x6A52, size: 0x8, addend: 0x0, symName: __ZNSt3__112__to_addressB7v160006I11LineSegmentEEPT_S3_, symObjAddr: 0x239C, symBinAddr: 0x100002BAC, symSize: 0x14 }
  - { offsetInCU: 0x6A87, offset: 0x6A87, size: 0x8, addend: 0x0, symName: __ZNSt3__118__debug_db_erase_cB7v160006INS_6vectorI11LineSegmentNS_9allocatorIS2_EEEEEEvPT_, symObjAddr: 0x26C4, symBinAddr: 0x100002ED4, symSize: 0x10 }
  - { offsetInCU: 0x6AB8, offset: 0x6AB8, size: 0x8, addend: 0x0, symName: __ZNSt3__119__libcpp_deallocateB7v160006EPvmm, symObjAddr: 0x2880, symBinAddr: 0x100003090, symSize: 0x30 }
  - { offsetInCU: 0x6B00, offset: 0x6B00, size: 0x8, addend: 0x0, symName: __ZNSt3__127__do_deallocate_handle_sizeB7v160006IJEEEvPvmDpT_, symObjAddr: 0x28B0, symBinAddr: 0x1000030C0, symSize: 0x28 }
  - { offsetInCU: 0x6B3E, offset: 0x6B3E, size: 0x8, addend: 0x0, symName: __ZNSt3__124__libcpp_operator_deleteB7v160006IJPvEEEvDpT_, symObjAddr: 0x28D8, symBinAddr: 0x1000030E8, symSize: 0x24 }
  - { offsetInCU: 0x6B73, offset: 0x6B73, size: 0x8, addend: 0x0, symName: __ZNSt3__130__uninitialized_allocator_copyB7v160006INS_9allocatorI11LineSegmentEEPS2_S4_S4_EET2_RT_T0_T1_S5_, symObjAddr: 0x2B8C, symBinAddr: 0x10000339C, symSize: 0xFC }
  - { offsetInCU: 0x6C11, offset: 0x6C11, size: 0x8, addend: 0x0, symName: __ZNSt3__122__make_exception_guardB7v160006INS_29_AllocatorDestroyRangeReverseINS_9allocatorI11LineSegmentEEPS3_EEEENS_28__exception_guard_exceptionsIT_EES8_, symObjAddr: 0x2C88, symBinAddr: 0x100003498, symSize: 0x4C }
  - { offsetInCU: 0x6C47, offset: 0x6C47, size: 0x8, addend: 0x0, symName: __ZNSt3__119__allocator_destroyB7v160006INS_9allocatorI11LineSegmentEENS_16reverse_iteratorIPS2_EES6_EEvRT_T0_T1_, symObjAddr: 0x2F08, symBinAddr: 0x100003718, symSize: 0x70 }
  - { offsetInCU: 0x6CAA, offset: 0x6CAA, size: 0x8, addend: 0x0, symName: __ZNSt3__1neB7v160006IP11LineSegmentS2_EEbRKNS_16reverse_iteratorIT_EERKNS3_IT0_EE, symObjAddr: 0x2FAC, symBinAddr: 0x1000037BC, symSize: 0x48 }
  - { offsetInCU: 0x6CF6, offset: 0x6CF6, size: 0x8, addend: 0x0, symName: __ZNSt3__112__to_addressB7v160006INS_16reverse_iteratorIP11LineSegmentEEvEENS_5decayIDTclsr19__to_address_helperIT_EE6__callclsr3stdE7declvalIRKS6_EEEEE4typeES8_, symObjAddr: 0x2FF4, symBinAddr: 0x100003804, symSize: 0x24 }
  - { offsetInCU: 0x6EFB, offset: 0x6EFB, size: 0x8, addend: 0x0, symName: __ZSt28__throw_bad_array_new_lengthB7v160006v, symObjAddr: 0x2224, symBinAddr: 0x100002A34, symSize: 0x34 }
  - { offsetInCU: 0x9567, offset: 0x9567, size: 0x8, addend: 0x0, symName: __Z7sortByXRK5PointS1_, symObjAddr: 0x0, symBinAddr: 0x100000810, symSize: 0x8C }
  - { offsetInCU: 0x95A1, offset: 0x95A1, size: 0x8, addend: 0x0, symName: __Z11orientation5PointS_S_, symObjAddr: 0x8C, symBinAddr: 0x10000089C, symSize: 0x9C }
  - { offsetInCU: 0x95F7, offset: 0x95F7, size: 0x8, addend: 0x0, symName: __Z9onSegment5PointS_S_, symObjAddr: 0x128, symBinAddr: 0x100000938, symSize: 0x118 }
  - { offsetInCU: 0x963F, offset: 0x963F, size: 0x8, addend: 0x0, symName: __Z11doIntersect11LineSegmentS_, symObjAddr: 0x298, symBinAddr: 0x100000AA8, symSize: 0x2C4 }
  - { offsetInCU: 0x96B4, offset: 0x96B4, size: 0x8, addend: 0x0, symName: __Z11isCollinear5PointS_S_, symObjAddr: 0x55C, symBinAddr: 0x100000D6C, symSize: 0xBC }
  - { offsetInCU: 0x96FC, offset: 0x96FC, size: 0x8, addend: 0x0, symName: __Z18countIntersectionsNSt3__16vectorI11LineSegmentNS_9allocatorIS1_EEEE, symObjAddr: 0x618, symBinAddr: 0x100000E28, symSize: 0x27C }
  - { offsetInCU: 0x9772, offset: 0x9772, size: 0x8, addend: 0x0, symName: __ZNKSt3__16vectorI11LineSegmentNS_9allocatorIS1_EEE4sizeB7v160006Ev, symObjAddr: 0x894, symBinAddr: 0x1000010A4, symSize: 0x28 }
  - { offsetInCU: 0x9798, offset: 0x9798, size: 0x8, addend: 0x0, symName: __ZNSt3__16vectorI11LineSegmentNS_9allocatorIS1_EEEixB7v160006Em, symObjAddr: 0x8BC, symBinAddr: 0x1000010CC, symSize: 0x24 }
  - { offsetInCU: 0x97CF, offset: 0x97CF, size: 0x8, addend: 0x0, symName: _main, symObjAddr: 0x8E0, symBinAddr: 0x1000010F0, symSize: 0x234 }
  - { offsetInCU: 0x9831, offset: 0x9831, size: 0x8, addend: 0x0, symName: __ZNSt3__16vectorI11LineSegmentNS_9allocatorIS1_EEEC1Em, symObjAddr: 0xB5C, symBinAddr: 0x10000136C, symSize: 0x34 }
  - { offsetInCU: 0x986C, offset: 0x986C, size: 0x8, addend: 0x0, symName: __ZNSt3__16vectorI11LineSegmentNS_9allocatorIS1_EEEC1ERKS4_, symObjAddr: 0xB90, symBinAddr: 0x1000013A0, symSize: 0x34 }
  - { offsetInCU: 0x98A7, offset: 0x98A7, size: 0x8, addend: 0x0, symName: __ZNSt3__16vectorI11LineSegmentNS_9allocatorIS1_EEED1B7v160006Ev, symObjAddr: 0xBC4, symBinAddr: 0x1000013D4, symSize: 0x2C }
  - { offsetInCU: 0x98D1, offset: 0x98D1, size: 0x8, addend: 0x0, symName: __ZNSt3__113basic_ostreamIcNS_11char_traitsIcEEElsB7v160006EPFRS3_S4_E, symObjAddr: 0xBFC, symBinAddr: 0x10000140C, symSize: 0x2C }
  - { offsetInCU: 0x9914, offset: 0x9914, size: 0x8, addend: 0x0, symName: __ZNKSt3__16__lessIiiEclB7v160006ERKiS3_, symObjAddr: 0xCD4, symBinAddr: 0x1000014E4, symSize: 0x34 }
  - { offsetInCU: 0x9956, offset: 0x9956, size: 0x8, addend: 0x0, symName: __ZNSt3__111char_traitsIcE6lengthEPKc, symObjAddr: 0xF50, symBinAddr: 0x100001760, symSize: 0x48 }
  - { offsetInCU: 0x9997, offset: 0x9997, size: 0x8, addend: 0x0, symName: __ZNKSt3__113basic_ostreamIcNS_11char_traitsIcEEE6sentrycvbB7v160006Ev, symObjAddr: 0xF98, symBinAddr: 0x1000017A8, symSize: 0x1C }
  - { offsetInCU: 0x99BD, offset: 0x99BD, size: 0x8, addend: 0x0, symName: __ZNSt3__119ostreambuf_iteratorIcNS_11char_traitsIcEEEC1B7v160006ERNS_13basic_ostreamIcS2_EE, symObjAddr: 0x11FC, symBinAddr: 0x100001A0C, symSize: 0x34 }
  - { offsetInCU: 0x99F5, offset: 0x99F5, size: 0x8, addend: 0x0, symName: __ZNKSt3__18ios_base5flagsB7v160006Ev, symObjAddr: 0x1230, symBinAddr: 0x100001A40, symSize: 0x18 }
  - { offsetInCU: 0x9A1D, offset: 0x9A1D, size: 0x8, addend: 0x0, symName: __ZNKSt3__19basic_iosIcNS_11char_traitsIcEEE4fillB7v160006Ev, symObjAddr: 0x1248, symBinAddr: 0x100001A58, symSize: 0x64 }
  - { offsetInCU: 0x9A45, offset: 0x9A45, size: 0x8, addend: 0x0, symName: __ZNKSt3__119ostreambuf_iteratorIcNS_11char_traitsIcEEE6failedB7v160006Ev, symObjAddr: 0x12AC, symBinAddr: 0x100001ABC, symSize: 0x24 }
  - { offsetInCU: 0x9A6B, offset: 0x9A6B, size: 0x8, addend: 0x0, symName: __ZNSt3__19basic_iosIcNS_11char_traitsIcEEE8setstateB7v160006Ej, symObjAddr: 0x12D0, symBinAddr: 0x100001AE0, symSize: 0x2C }
  - { offsetInCU: 0x9AA0, offset: 0x9AA0, size: 0x8, addend: 0x0, symName: __ZNKSt3__18ios_base5widthB7v160006Ev, symObjAddr: 0x12FC, symBinAddr: 0x100001B0C, symSize: 0x18 }
  - { offsetInCU: 0x9AC8, offset: 0x9AC8, size: 0x8, addend: 0x0, symName: __ZNSt3__115basic_streambufIcNS_11char_traitsIcEEE5sputnB7v160006EPKcl, symObjAddr: 0x1314, symBinAddr: 0x100001B24, symSize: 0x3C }
  - { offsetInCU: 0x9B0A, offset: 0x9B0A, size: 0x8, addend: 0x0, symName: __ZNSt3__112basic_stringIcNS_11char_traitsIcEENS_9allocatorIcEEEC1B7v160006Emc, symObjAddr: 0x1350, symBinAddr: 0x100001B60, symSize: 0x3C }
  - { offsetInCU: 0x9B52, offset: 0x9B52, size: 0x8, addend: 0x0, symName: __ZNKSt3__112basic_stringIcNS_11char_traitsIcEENS_9allocatorIcEEE4dataB7v160006Ev, symObjAddr: 0x138C, symBinAddr: 0x100001B9C, symSize: 0x28 }
  - { offsetInCU: 0x9B78, offset: 0x9B78, size: 0x8, addend: 0x0, symName: __ZNSt3__18ios_base5widthB7v160006El, symObjAddr: 0x13B4, symBinAddr: 0x100001BC4, symSize: 0x2C }
  - { offsetInCU: 0x9BBE, offset: 0x9BBE, size: 0x8, addend: 0x0, symName: __ZNSt3__112basic_stringIcNS_11char_traitsIcEENS_9allocatorIcEEEC2B7v160006Emc, symObjAddr: 0x13E0, symBinAddr: 0x100001BF0, symSize: 0x54 }
  - { offsetInCU: 0x9C0B, offset: 0x9C0B, size: 0x8, addend: 0x0, symName: __ZNSt3__117__compressed_pairINS_12basic_stringIcNS_11char_traitsIcEENS_9allocatorIcEEE5__repES5_EC1B7v160006INS_18__default_init_tagESA_EEOT_OT0_, symObjAddr: 0x1434, symBinAddr: 0x100001C44, symSize: 0x3C }
  - { offsetInCU: 0x9C63, offset: 0x9C63, size: 0x8, addend: 0x0, symName: __ZNSt3__117__compressed_pairINS_12basic_stringIcNS_11char_traitsIcEENS_9allocatorIcEEE5__repES5_EC2B7v160006INS_18__default_init_tagESA_EEOT_OT0_, symObjAddr: 0x1480, symBinAddr: 0x100001C90, symSize: 0x3C }
  - { offsetInCU: 0x9CBB, offset: 0x9CBB, size: 0x8, addend: 0x0, symName: __ZNSt3__122__compressed_pair_elemINS_12basic_stringIcNS_11char_traitsIcEENS_9allocatorIcEEE5__repELi0ELb0EEC2B7v160006ENS_18__default_init_tagE, symObjAddr: 0x14BC, symBinAddr: 0x100001CCC, symSize: 0x14 }
  - { offsetInCU: 0x9CF0, offset: 0x9CF0, size: 0x8, addend: 0x0, symName: __ZNSt3__122__compressed_pair_elemINS_9allocatorIcEELi1ELb1EEC2B7v160006ENS_18__default_init_tagE, symObjAddr: 0x14D0, symBinAddr: 0x100001CE0, symSize: 0x2C }
  - { offsetInCU: 0x9D25, offset: 0x9D25, size: 0x8, addend: 0x0, symName: __ZNSt3__19allocatorIcEC2B7v160006Ev, symObjAddr: 0x14FC, symBinAddr: 0x100001D0C, symSize: 0x2C }
  - { offsetInCU: 0x9D4F, offset: 0x9D4F, size: 0x8, addend: 0x0, symName: __ZNSt3__116__non_trivial_ifILb1ENS_9allocatorIcEEEC2B7v160006Ev, symObjAddr: 0x1528, symBinAddr: 0x100001D38, symSize: 0x14 }
  - { offsetInCU: 0x9D79, offset: 0x9D79, size: 0x8, addend: 0x0, symName: __ZNKSt3__112basic_stringIcNS_11char_traitsIcEENS_9allocatorIcEEE13__get_pointerB7v160006Ev, symObjAddr: 0x1550, symBinAddr: 0x100001D60, symSize: 0x54 }
  - { offsetInCU: 0x9D9F, offset: 0x9D9F, size: 0x8, addend: 0x0, symName: __ZNKSt3__112basic_stringIcNS_11char_traitsIcEENS_9allocatorIcEEE9__is_longB7v160006Ev, symObjAddr: 0x15A4, symBinAddr: 0x100001DB4, symSize: 0x74 }
  - { offsetInCU: 0x9DC5, offset: 0x9DC5, size: 0x8, addend: 0x0, symName: __ZNKSt3__112basic_stringIcNS_11char_traitsIcEENS_9allocatorIcEEE18__get_long_pointerB7v160006Ev, symObjAddr: 0x1618, symBinAddr: 0x100001E28, symSize: 0x28 }
  - { offsetInCU: 0x9DEB, offset: 0x9DEB, size: 0x8, addend: 0x0, symName: __ZNKSt3__112basic_stringIcNS_11char_traitsIcEENS_9allocatorIcEEE19__get_short_pointerB7v160006Ev, symObjAddr: 0x1640, symBinAddr: 0x100001E50, symSize: 0x28 }
  - { offsetInCU: 0x9E11, offset: 0x9E11, size: 0x8, addend: 0x0, symName: __ZNKSt3__117__compressed_pairINS_12basic_stringIcNS_11char_traitsIcEENS_9allocatorIcEEE5__repES5_E5firstB7v160006Ev, symObjAddr: 0x1674, symBinAddr: 0x100001E84, symSize: 0x24 }
  - { offsetInCU: 0x9E37, offset: 0x9E37, size: 0x8, addend: 0x0, symName: __ZNKSt3__122__compressed_pair_elemINS_12basic_stringIcNS_11char_traitsIcEENS_9allocatorIcEEE5__repELi0ELb0EE5__getB7v160006Ev, symObjAddr: 0x1698, symBinAddr: 0x100001EA8, symSize: 0x14 }
  - { offsetInCU: 0x9E5D, offset: 0x9E5D, size: 0x8, addend: 0x0, symName: __ZNSt3__114pointer_traitsIPKcE10pointer_toB7v160006ERS1_, symObjAddr: 0x16AC, symBinAddr: 0x100001EBC, symSize: 0x14 }
  - { offsetInCU: 0x9E80, offset: 0x9E80, size: 0x8, addend: 0x0, symName: __ZNSt3__119ostreambuf_iteratorIcNS_11char_traitsIcEEEC2B7v160006ERNS_13basic_ostreamIcS2_EE, symObjAddr: 0x16C0, symBinAddr: 0x100001ED0, symSize: 0x68 }
  - { offsetInCU: 0x9EB8, offset: 0x9EB8, size: 0x8, addend: 0x0, symName: __ZNKSt3__19basic_iosIcNS_11char_traitsIcEEE5rdbufB7v160006Ev, symObjAddr: 0x1728, symBinAddr: 0x100001F38, symSize: 0x24 }
  - { offsetInCU: 0x9EE0, offset: 0x9EE0, size: 0x8, addend: 0x0, symName: __ZNKSt3__18ios_base5rdbufB7v160006Ev, symObjAddr: 0x174C, symBinAddr: 0x100001F5C, symSize: 0x18 }
  - { offsetInCU: 0x9F06, offset: 0x9F06, size: 0x8, addend: 0x0, symName: __ZNSt3__111char_traitsIcE11eq_int_typeEii, symObjAddr: 0x1764, symBinAddr: 0x100001F74, symSize: 0x28 }
  - { offsetInCU: 0x9F37, offset: 0x9F37, size: 0x8, addend: 0x0, symName: __ZNSt3__111char_traitsIcE3eofEv, symObjAddr: 0x178C, symBinAddr: 0x100001F9C, symSize: 0x8 }
  - { offsetInCU: 0x9F4B, offset: 0x9F4B, size: 0x8, addend: 0x0, symName: __ZNKSt3__19basic_iosIcNS_11char_traitsIcEEE5widenB7v160006Ec, symObjAddr: 0x1794, symBinAddr: 0x100001FA4, symSize: 0x8C }
  - { offsetInCU: 0x9FB9, offset: 0x9FB9, size: 0x8, addend: 0x0, symName: __ZNKSt3__15ctypeIcE5widenB7v160006Ec, symObjAddr: 0x184C, symBinAddr: 0x10000205C, symSize: 0x38 }
  - { offsetInCU: 0x9FEE, offset: 0x9FEE, size: 0x8, addend: 0x0, symName: __ZNSt3__18ios_base8setstateB7v160006Ej, symObjAddr: 0x1884, symBinAddr: 0x100002094, symSize: 0x34 }
  - { offsetInCU: 0xA025, offset: 0xA025, size: 0x8, addend: 0x0, symName: __ZNSt3__16vectorI11LineSegmentNS_9allocatorIS1_EEEC2Em, symObjAddr: 0x18DC, symBinAddr: 0x1000020EC, symSize: 0xE8 }
  - { offsetInCU: 0xA07A, offset: 0xA07A, size: 0x8, addend: 0x0, symName: __ZNSt3__117__compressed_pairIP11LineSegmentNS_9allocatorIS1_EEEC1B7v160006IDnNS_18__default_init_tagEEEOT_OT0_, symObjAddr: 0x19C4, symBinAddr: 0x1000021D4, symSize: 0x3C }
  - { offsetInCU: 0xA0D2, offset: 0xA0D2, size: 0x8, addend: 0x0, symName: __ZNSt3__16vectorI11LineSegmentNS_9allocatorIS1_EEE16__destroy_vectorC1ERS4_, symObjAddr: 0x1A40, symBinAddr: 0x100002250, symSize: 0x34 }
  - { offsetInCU: 0xA10B, offset: 0xA10B, size: 0x8, addend: 0x0, symName: __ZNSt3__16vectorI11LineSegmentNS_9allocatorIS1_EEE11__vallocateB7v160006Em, symObjAddr: 0x1A84, symBinAddr: 0x100002294, symSize: 0xAC }
  - { offsetInCU: 0xA14F, offset: 0xA14F, size: 0x8, addend: 0x0, symName: __ZNSt3__16vectorI11LineSegmentNS_9allocatorIS1_EEE18__construct_at_endEm, symObjAddr: 0x1B30, symBinAddr: 0x100002340, symSize: 0xD0 }
  - { offsetInCU: 0xA1C2, offset: 0xA1C2, size: 0x8, addend: 0x0, symName: __ZNSt3__128__exception_guard_exceptionsINS_6vectorI11LineSegmentNS_9allocatorIS2_EEE16__destroy_vectorEE10__completeB7v160006Ev, symObjAddr: 0x1C00, symBinAddr: 0x100002410, symSize: 0x1C }
  - { offsetInCU: 0xA1E8, offset: 0xA1E8, size: 0x8, addend: 0x0, symName: __ZNSt3__128__exception_guard_exceptionsINS_6vectorI11LineSegmentNS_9allocatorIS2_EEE16__destroy_vectorEED1B7v160006Ev, symObjAddr: 0x1C1C, symBinAddr: 0x10000242C, symSize: 0x2C }
  - { offsetInCU: 0xA212, offset: 0xA212, size: 0x8, addend: 0x0, symName: __ZNSt3__117__compressed_pairIP11LineSegmentNS_9allocatorIS1_EEEC2B7v160006IDnNS_18__default_init_tagEEEOT_OT0_, symObjAddr: 0x1C48, symBinAddr: 0x100002458, symSize: 0x40 }
  - { offsetInCU: 0xA26A, offset: 0xA26A, size: 0x8, addend: 0x0, symName: __ZNSt3__122__compressed_pair_elemIP11LineSegmentLi0ELb0EEC2B7v160006IDnvEEOT_, symObjAddr: 0x1C88, symBinAddr: 0x100002498, symSize: 0x1C }
  - { offsetInCU: 0xA2AC, offset: 0xA2AC, size: 0x8, addend: 0x0, symName: __ZNSt3__122__compressed_pair_elemINS_9allocatorI11LineSegmentEELi1ELb1EEC2B7v160006ENS_18__default_init_tagE, symObjAddr: 0x1CA4, symBinAddr: 0x1000024B4, symSize: 0x2C }
  - { offsetInCU: 0xA2E1, offset: 0xA2E1, size: 0x8, addend: 0x0, symName: __ZNSt3__19allocatorI11LineSegmentEC2B7v160006Ev, symObjAddr: 0x1CD0, symBinAddr: 0x1000024E0, symSize: 0x2C }
  - { offsetInCU: 0xA30B, offset: 0xA30B, size: 0x8, addend: 0x0, symName: __ZNSt3__116__non_trivial_ifILb1ENS_9allocatorI11LineSegmentEEEC2B7v160006Ev, symObjAddr: 0x1CFC, symBinAddr: 0x10000250C, symSize: 0x14 }
  - { offsetInCU: 0xA335, offset: 0xA335, size: 0x8, addend: 0x0, symName: __ZNSt3__128__exception_guard_exceptionsINS_6vectorI11LineSegmentNS_9allocatorIS2_EEE16__destroy_vectorEEC1B7v160006ES6_, symObjAddr: 0x1D10, symBinAddr: 0x100002520, symSize: 0x34 }
  - { offsetInCU: 0xA36D, offset: 0xA36D, size: 0x8, addend: 0x0, symName: __ZNSt3__128__exception_guard_exceptionsINS_6vectorI11LineSegmentNS_9allocatorIS2_EEE16__destroy_vectorEEC2B7v160006ES6_, symObjAddr: 0x1D44, symBinAddr: 0x100002554, symSize: 0x24 }
  - { offsetInCU: 0xA3A5, offset: 0xA3A5, size: 0x8, addend: 0x0, symName: __ZNSt3__16vectorI11LineSegmentNS_9allocatorIS1_EEE16__destroy_vectorC2ERS4_, symObjAddr: 0x1D68, symBinAddr: 0x100002578, symSize: 0x20 }
  - { offsetInCU: 0xA3DE, offset: 0xA3DE, size: 0x8, addend: 0x0, symName: __ZNKSt3__16vectorI11LineSegmentNS_9allocatorIS1_EEE8max_sizeEv, symObjAddr: 0x1D88, symBinAddr: 0x100002598, symSize: 0x74 }
  - { offsetInCU: 0xA406, offset: 0xA406, size: 0x8, addend: 0x0, symName: __ZNKSt3__16vectorI11LineSegmentNS_9allocatorIS1_EEE20__throw_length_errorB7v160006Ev, symObjAddr: 0x1DFC, symBinAddr: 0x10000260C, symSize: 0x1C }
  - { offsetInCU: 0xA42C, offset: 0xA42C, size: 0x8, addend: 0x0, symName: __ZNSt3__16vectorI11LineSegmentNS_9allocatorIS1_EEE7__allocB7v160006Ev, symObjAddr: 0x1E58, symBinAddr: 0x100002668, symSize: 0x28 }
  - { offsetInCU: 0xA452, offset: 0xA452, size: 0x8, addend: 0x0, symName: __ZNSt3__16vectorI11LineSegmentNS_9allocatorIS1_EEE9__end_capB7v160006Ev, symObjAddr: 0x1E80, symBinAddr: 0x100002690, symSize: 0x28 }
  - { offsetInCU: 0xA478, offset: 0xA478, size: 0x8, addend: 0x0, symName: __ZNKSt3__16vectorI11LineSegmentNS_9allocatorIS1_EEE14__annotate_newB7v160006Em, symObjAddr: 0x1EA8, symBinAddr: 0x1000026B8, symSize: 0xAC }
  - { offsetInCU: 0xA4B7, offset: 0xA4B7, size: 0x8, addend: 0x0, symName: __ZNSt3__116allocator_traitsINS_9allocatorI11LineSegmentEEE8max_sizeB7v160006IS3_vEEmRKS3_, symObjAddr: 0x1F80, symBinAddr: 0x100002790, symSize: 0x24 }
  - { offsetInCU: 0xA4E5, offset: 0xA4E5, size: 0x8, addend: 0x0, symName: __ZNKSt3__16vectorI11LineSegmentNS_9allocatorIS1_EEE7__allocB7v160006Ev, symObjAddr: 0x1FA4, symBinAddr: 0x1000027B4, symSize: 0x28 }
  - { offsetInCU: 0xA50B, offset: 0xA50B, size: 0x8, addend: 0x0, symName: __ZNSt3__114numeric_limitsIlE3maxB7v160006Ev, symObjAddr: 0x1FCC, symBinAddr: 0x1000027DC, symSize: 0x14 }
  - { offsetInCU: 0xA533, offset: 0xA533, size: 0x8, addend: 0x0, symName: __ZNKSt3__16__lessImmEclB7v160006ERKmS3_, symObjAddr: 0x2034, symBinAddr: 0x100002844, symSize: 0x34 }
  - { offsetInCU: 0xA575, offset: 0xA575, size: 0x8, addend: 0x0, symName: __ZNKSt3__19allocatorI11LineSegmentE8max_sizeB7v160006Ev, symObjAddr: 0x2068, symBinAddr: 0x100002878, symSize: 0x14 }
  - { offsetInCU: 0xA59B, offset: 0xA59B, size: 0x8, addend: 0x0, symName: __ZNKSt3__117__compressed_pairIP11LineSegmentNS_9allocatorIS1_EEE6secondB7v160006Ev, symObjAddr: 0x207C, symBinAddr: 0x10000288C, symSize: 0x24 }
  - { offsetInCU: 0xA5C1, offset: 0xA5C1, size: 0x8, addend: 0x0, symName: __ZNKSt3__122__compressed_pair_elemINS_9allocatorI11LineSegmentEELi1ELb1EE5__getB7v160006Ev, symObjAddr: 0x20A0, symBinAddr: 0x1000028B0, symSize: 0x14 }
  - { offsetInCU: 0xA5E7, offset: 0xA5E7, size: 0x8, addend: 0x0, symName: __ZNSt3__123__libcpp_numeric_limitsIlLb1EE3maxB7v160006Ev, symObjAddr: 0x20B4, symBinAddr: 0x1000028C4, symSize: 0x8 }
  - { offsetInCU: 0xA5FB, offset: 0xA5FB, size: 0x8, addend: 0x0, symName: __ZNSt12length_errorC1B7v160006EPKc, symObjAddr: 0x2120, symBinAddr: 0x100002930, symSize: 0x34 }
  - { offsetInCU: 0xA633, offset: 0xA633, size: 0x8, addend: 0x0, symName: __ZNSt12length_errorC2B7v160006EPKc, symObjAddr: 0x2154, symBinAddr: 0x100002964, symSize: 0x4C }
  - { offsetInCU: 0xA66B, offset: 0xA66B, size: 0x8, addend: 0x0, symName: __ZNSt3__19allocatorI11LineSegmentE8allocateB7v160006Em, symObjAddr: 0x21A0, symBinAddr: 0x1000029B0, symSize: 0x84 }
  - { offsetInCU: 0xA69F, offset: 0xA69F, size: 0x8, addend: 0x0, symName: __ZNSt3__117__compressed_pairIP11LineSegmentNS_9allocatorIS1_EEE6secondB7v160006Ev, symObjAddr: 0x22A4, symBinAddr: 0x100002AB4, symSize: 0x24 }
  - { offsetInCU: 0xA6C5, offset: 0xA6C5, size: 0x8, addend: 0x0, symName: __ZNSt3__122__compressed_pair_elemINS_9allocatorI11LineSegmentEELi1ELb1EE5__getB7v160006Ev, symObjAddr: 0x22C8, symBinAddr: 0x100002AD8, symSize: 0x14 }
  - { offsetInCU: 0xA6EB, offset: 0xA6EB, size: 0x8, addend: 0x0, symName: __ZNSt3__117__compressed_pairIP11LineSegmentNS_9allocatorIS1_EEE5firstB7v160006Ev, symObjAddr: 0x22DC, symBinAddr: 0x100002AEC, symSize: 0x24 }
  - { offsetInCU: 0xA711, offset: 0xA711, size: 0x8, addend: 0x0, symName: __ZNSt3__122__compressed_pair_elemIP11LineSegmentLi0ELb0EE5__getB7v160006Ev, symObjAddr: 0x2300, symBinAddr: 0x100002B10, symSize: 0x14 }
  - { offsetInCU: 0xA737, offset: 0xA737, size: 0x8, addend: 0x0, symName: __ZNKSt3__16vectorI11LineSegmentNS_9allocatorIS1_EEE31__annotate_contiguous_containerB7v160006EPKvS6_S6_S6_, symObjAddr: 0x2314, symBinAddr: 0x100002B24, symSize: 0x20 }
  - { offsetInCU: 0xA78D, offset: 0xA78D, size: 0x8, addend: 0x0, symName: __ZNKSt3__16vectorI11LineSegmentNS_9allocatorIS1_EEE4dataB7v160006Ev, symObjAddr: 0x2334, symBinAddr: 0x100002B44, symSize: 0x28 }
  - { offsetInCU: 0xA7B3, offset: 0xA7B3, size: 0x8, addend: 0x0, symName: __ZNKSt3__16vectorI11LineSegmentNS_9allocatorIS1_EEE8capacityB7v160006Ev, symObjAddr: 0x235C, symBinAddr: 0x100002B6C, symSize: 0x40 }
  - { offsetInCU: 0xA7D9, offset: 0xA7D9, size: 0x8, addend: 0x0, symName: __ZNKSt3__16vectorI11LineSegmentNS_9allocatorIS1_EEE9__end_capB7v160006Ev, symObjAddr: 0x23B0, symBinAddr: 0x100002BC0, symSize: 0x28 }
  - { offsetInCU: 0xA7FF, offset: 0xA7FF, size: 0x8, addend: 0x0, symName: __ZNKSt3__117__compressed_pairIP11LineSegmentNS_9allocatorIS1_EEE5firstB7v160006Ev, symObjAddr: 0x23D8, symBinAddr: 0x100002BE8, symSize: 0x24 }
  - { offsetInCU: 0xA825, offset: 0xA825, size: 0x8, addend: 0x0, symName: __ZNKSt3__122__compressed_pair_elemIP11LineSegmentLi0ELb0EE5__getB7v160006Ev, symObjAddr: 0x23FC, symBinAddr: 0x100002C0C, symSize: 0x14 }
  - { offsetInCU: 0xA864, offset: 0xA864, size: 0x8, addend: 0x0, symName: __ZNSt3__16vectorI11LineSegmentNS_9allocatorIS1_EEE21_ConstructTransactionC1B7v160006ERS4_m, symObjAddr: 0x2410, symBinAddr: 0x100002C20, symSize: 0x3C }
  - { offsetInCU: 0xA8AC, offset: 0xA8AC, size: 0x8, addend: 0x0, symName: __ZNSt3__116allocator_traitsINS_9allocatorI11LineSegmentEEE9constructB7v160006IS2_JEvEEvRS3_PT_DpOT0_, symObjAddr: 0x244C, symBinAddr: 0x100002C5C, symSize: 0x2C }
  - { offsetInCU: 0xA8EE, offset: 0xA8EE, size: 0x8, addend: 0x0, symName: __ZNSt3__16vectorI11LineSegmentNS_9allocatorIS1_EEE21_ConstructTransactionD1B7v160006Ev, symObjAddr: 0x2478, symBinAddr: 0x100002C88, symSize: 0x2C }
  - { offsetInCU: 0xA918, offset: 0xA918, size: 0x8, addend: 0x0, symName: __ZNSt3__16vectorI11LineSegmentNS_9allocatorIS1_EEE21_ConstructTransactionC2B7v160006ERS4_m, symObjAddr: 0x24A4, symBinAddr: 0x100002CB4, symSize: 0x44 }
  - { offsetInCU: 0xA960, offset: 0xA960, size: 0x8, addend: 0x0, symName: __ZNSt3__19allocatorI11LineSegmentE9constructB7v160006IS1_JEEEvPT_DpOT0_, symObjAddr: 0x24E8, symBinAddr: 0x100002CF8, symSize: 0x20 }
  - { offsetInCU: 0xA9A2, offset: 0xA9A2, size: 0x8, addend: 0x0, symName: __ZNSt3__16vectorI11LineSegmentNS_9allocatorIS1_EEE21_ConstructTransactionD2B7v160006Ev, symObjAddr: 0x2508, symBinAddr: 0x100002D18, symSize: 0x20 }
  - { offsetInCU: 0xA9CC, offset: 0xA9CC, size: 0x8, addend: 0x0, symName: __ZNSt3__128__exception_guard_exceptionsINS_6vectorI11LineSegmentNS_9allocatorIS2_EEE16__destroy_vectorEED2B7v160006Ev, symObjAddr: 0x2528, symBinAddr: 0x100002D38, symSize: 0x48 }
  - { offsetInCU: 0xA9F6, offset: 0xA9F6, size: 0x8, addend: 0x0, symName: __ZNSt3__16vectorI11LineSegmentNS_9allocatorIS1_EEE16__destroy_vectorclB7v160006Ev, symObjAddr: 0x2570, symBinAddr: 0x100002D80, symSize: 0x9C }
  - { offsetInCU: 0xAA1C, offset: 0xAA1C, size: 0x8, addend: 0x0, symName: __ZNKSt3__16vectorI11LineSegmentNS_9allocatorIS1_EEE17__annotate_deleteB7v160006Ev, symObjAddr: 0x260C, symBinAddr: 0x100002E1C, symSize: 0xB8 }
  - { offsetInCU: 0xAA42, offset: 0xAA42, size: 0x8, addend: 0x0, symName: __ZNSt3__16vectorI11LineSegmentNS_9allocatorIS1_EEE7__clearB7v160006Ev, symObjAddr: 0x26D4, symBinAddr: 0x100002EE4, symSize: 0x28 }
  - { offsetInCU: 0xAA68, offset: 0xAA68, size: 0x8, addend: 0x0, symName: __ZNSt3__116allocator_traitsINS_9allocatorI11LineSegmentEEE10deallocateB7v160006ERS3_PS2_m, symObjAddr: 0x26FC, symBinAddr: 0x100002F0C, symSize: 0x34 }
  - { offsetInCU: 0xAAAA, offset: 0xAAAA, size: 0x8, addend: 0x0, symName: __ZNSt3__16vectorI11LineSegmentNS_9allocatorIS1_EEE22__base_destruct_at_endB7v160006EPS1_, symObjAddr: 0x2730, symBinAddr: 0x100002F40, symSize: 0xA0 }
  - { offsetInCU: 0xAAEE, offset: 0xAAEE, size: 0x8, addend: 0x0, symName: __ZNSt3__116allocator_traitsINS_9allocatorI11LineSegmentEEE7destroyB7v160006IS2_vEEvRS3_PT_, symObjAddr: 0x27D0, symBinAddr: 0x100002FE0, symSize: 0x2C }
  - { offsetInCU: 0xAB2B, offset: 0xAB2B, size: 0x8, addend: 0x0, symName: __ZNSt3__19allocatorI11LineSegmentE7destroyB7v160006EPS1_, symObjAddr: 0x27FC, symBinAddr: 0x10000300C, symSize: 0x14 }
  - { offsetInCU: 0xAB5F, offset: 0xAB5F, size: 0x8, addend: 0x0, symName: __ZNSt3__19allocatorI11LineSegmentE10deallocateB7v160006EPS1_m, symObjAddr: 0x2810, symBinAddr: 0x100003020, symSize: 0x70 }
  - { offsetInCU: 0xABA1, offset: 0xABA1, size: 0x8, addend: 0x0, symName: __ZNSt3__16vectorI11LineSegmentNS_9allocatorIS1_EEED2B7v160006Ev, symObjAddr: 0x28FC, symBinAddr: 0x10000310C, symSize: 0x3C }
  - { offsetInCU: 0xABCB, offset: 0xABCB, size: 0x8, addend: 0x0, symName: __ZNSt3__16vectorI11LineSegmentNS_9allocatorIS1_EEEC2ERKS4_, symObjAddr: 0x2938, symBinAddr: 0x100003148, symSize: 0x118 }
  - { offsetInCU: 0xAC2A, offset: 0xAC2A, size: 0x8, addend: 0x0, symName: __ZNSt3__116allocator_traitsINS_9allocatorI11LineSegmentEEE37select_on_container_copy_constructionB7v160006IS3_vvEES3_RKS3_, symObjAddr: 0x2A50, symBinAddr: 0x100003260, symSize: 0x10 }
  - { offsetInCU: 0xAC5E, offset: 0xAC5E, size: 0x8, addend: 0x0, symName: __ZNSt3__117__compressed_pairIP11LineSegmentNS_9allocatorIS1_EEEC1B7v160006IDnS4_EEOT_OT0_, symObjAddr: 0x2A60, symBinAddr: 0x100003270, symSize: 0x3C }
  - { offsetInCU: 0xACB6, offset: 0xACB6, size: 0x8, addend: 0x0, symName: __ZNSt3__16vectorI11LineSegmentNS_9allocatorIS1_EEE18__construct_at_endIPS1_Li0EEEvT_S7_m, symObjAddr: 0x2A9C, symBinAddr: 0x1000032AC, symSize: 0x94 }
  - { offsetInCU: 0xAD29, offset: 0xAD29, size: 0x8, addend: 0x0, symName: __ZNSt3__117__compressed_pairIP11LineSegmentNS_9allocatorIS1_EEEC2B7v160006IDnS4_EEOT_OT0_, symObjAddr: 0x2B30, symBinAddr: 0x100003340, symSize: 0x44 }
  - { offsetInCU: 0xAD81, offset: 0xAD81, size: 0x8, addend: 0x0, symName: __ZNSt3__122__compressed_pair_elemINS_9allocatorI11LineSegmentEELi1ELb1EEC2B7v160006IS3_vEEOT_, symObjAddr: 0x2B74, symBinAddr: 0x100003384, symSize: 0x18 }
  - { offsetInCU: 0xADC3, offset: 0xADC3, size: 0x8, addend: 0x0, symName: __ZNSt3__129_AllocatorDestroyRangeReverseINS_9allocatorI11LineSegmentEEPS2_EC1B7v160006ERS3_RS4_S7_, symObjAddr: 0x2CD4, symBinAddr: 0x1000034E4, symSize: 0x44 }
  - { offsetInCU: 0xAE1A, offset: 0xAE1A, size: 0x8, addend: 0x0, symName: __ZNSt3__116allocator_traitsINS_9allocatorI11LineSegmentEEE9constructB7v160006IS2_JRS2_EvEEvRS3_PT_DpOT0_, symObjAddr: 0x2D18, symBinAddr: 0x100003528, symSize: 0x34 }
  - { offsetInCU: 0xAE71, offset: 0xAE71, size: 0x8, addend: 0x0, symName: __ZNSt3__128__exception_guard_exceptionsINS_29_AllocatorDestroyRangeReverseINS_9allocatorI11LineSegmentEEPS3_EEE10__completeB7v160006Ev, symObjAddr: 0x2D4C, symBinAddr: 0x10000355C, symSize: 0x1C }
  - { offsetInCU: 0xAE97, offset: 0xAE97, size: 0x8, addend: 0x0, symName: __ZNSt3__128__exception_guard_exceptionsINS_29_AllocatorDestroyRangeReverseINS_9allocatorI11LineSegmentEEPS3_EEED1B7v160006Ev, symObjAddr: 0x2D68, symBinAddr: 0x100003578, symSize: 0x2C }
  - { offsetInCU: 0xAEC1, offset: 0xAEC1, size: 0x8, addend: 0x0, symName: __ZNSt3__128__exception_guard_exceptionsINS_29_AllocatorDestroyRangeReverseINS_9allocatorI11LineSegmentEEPS3_EEEC1B7v160006ES6_, symObjAddr: 0x2D94, symBinAddr: 0x1000035A4, symSize: 0x34 }
  - { offsetInCU: 0xAEFA, offset: 0xAEFA, size: 0x8, addend: 0x0, symName: __ZNSt3__128__exception_guard_exceptionsINS_29_AllocatorDestroyRangeReverseINS_9allocatorI11LineSegmentEEPS3_EEEC2B7v160006ES6_, symObjAddr: 0x2DC8, symBinAddr: 0x1000035D8, symSize: 0x30 }
  - { offsetInCU: 0xAF33, offset: 0xAF33, size: 0x8, addend: 0x0, symName: __ZNSt3__129_AllocatorDestroyRangeReverseINS_9allocatorI11LineSegmentEEPS2_EC2B7v160006ERS3_RS4_S7_, symObjAddr: 0x2DF8, symBinAddr: 0x100003608, symSize: 0x38 }
  - { offsetInCU: 0xAF8A, offset: 0xAF8A, size: 0x8, addend: 0x0, symName: __ZNSt3__19allocatorI11LineSegmentE9constructB7v160006IS1_JRS1_EEEvPT_DpOT0_, symObjAddr: 0x2E30, symBinAddr: 0x100003640, symSize: 0x28 }
  - { offsetInCU: 0xAFE0, offset: 0xAFE0, size: 0x8, addend: 0x0, symName: __ZNSt3__128__exception_guard_exceptionsINS_29_AllocatorDestroyRangeReverseINS_9allocatorI11LineSegmentEEPS3_EEED2B7v160006Ev, symObjAddr: 0x2E58, symBinAddr: 0x100003668, symSize: 0x48 }
  - { offsetInCU: 0xB00A, offset: 0xB00A, size: 0x8, addend: 0x0, symName: __ZNKSt3__129_AllocatorDestroyRangeReverseINS_9allocatorI11LineSegmentEEPS2_EclB7v160006Ev, symObjAddr: 0x2EA0, symBinAddr: 0x1000036B0, symSize: 0x68 }
  - { offsetInCU: 0xB030, offset: 0xB030, size: 0x8, addend: 0x0, symName: __ZNSt3__116reverse_iteratorIP11LineSegmentEC1B7v160006ES2_, symObjAddr: 0x2F78, symBinAddr: 0x100003788, symSize: 0x34 }
  - { offsetInCU: 0xB068, offset: 0xB068, size: 0x8, addend: 0x0, symName: __ZNSt3__116reverse_iteratorIP11LineSegmentEppB7v160006Ev, symObjAddr: 0x3018, symBinAddr: 0x100003828, symSize: 0x20 }
  - { offsetInCU: 0xB08E, offset: 0xB08E, size: 0x8, addend: 0x0, symName: __ZNKSt3__116reverse_iteratorIP11LineSegmentE4baseB7v160006Ev, symObjAddr: 0x3038, symBinAddr: 0x100003848, symSize: 0x18 }
  - { offsetInCU: 0xB0B9, offset: 0xB0B9, size: 0x8, addend: 0x0, symName: __ZNSt3__119__to_address_helperINS_16reverse_iteratorIP11LineSegmentEEvE6__callB7v160006ERKS4_, symObjAddr: 0x3050, symBinAddr: 0x100003860, symSize: 0x4C }
  - { offsetInCU: 0xB0DC, offset: 0xB0DC, size: 0x8, addend: 0x0, symName: __ZNKSt3__116reverse_iteratorIP11LineSegmentEptB7v160006Ev, symObjAddr: 0x309C, symBinAddr: 0x1000038AC, symSize: 0x24 }
  - { offsetInCU: 0xB102, offset: 0xB102, size: 0x8, addend: 0x0, symName: __ZNKSt3__116reverse_iteratorIP11LineSegmentEdeB7v160006Ev, symObjAddr: 0x30C0, symBinAddr: 0x1000038D0, symSize: 0x28 }
  - { offsetInCU: 0xB136, offset: 0xB136, size: 0x8, addend: 0x0, symName: __ZNSt3__116reverse_iteratorIP11LineSegmentEC2B7v160006ES2_, symObjAddr: 0x30E8, symBinAddr: 0x1000038F8, symSize: 0x28 }
...
